; Function Attrs: mustprogress nofree nounwind willreturn memory(read, inaccessiblemem: none) uwtable
define internal noundef zeroext i1 @_ZN7doctest12_GLOBAL__N_119fileOrderComparatorEPKNS_6detail8TestCaseES4_(ptr noundef readonly captures(none) %0, ptr noundef readonly captures(none) %1) #21 {
  %3 = getelementptr inbounds nuw i8, ptr %1, i64 23
  %4 = load i8, ptr %3, align 1, !tbaa !38
  %5 = load ptr, ptr %1, align 8
  %6 = icmp slt i8 %4, 0
  %.0.i.i.i = select i1 %6, ptr %5, ptr %1
  %7 = getelementptr inbounds nuw i8, ptr %0, i64 23
  %8 = load i8, ptr %7, align 1, !tbaa !38
  %9 = load ptr, ptr %0, align 8
  %10 = icmp slt i8 %8, 0
  %.0.i.i.i.i = select i1 %10, ptr %9, ptr %0
  %11 = tail call i32 @strcmp(ptr noundef nonnull dereferenceable(1) %.0.i.i.i.i, ptr noundef nonnull readonly dereferenceable(1) %.0.i.i.i) #52
  %.not = icmp eq i32 %11, 0
  br i1 %.not, label %14, label %12

12:                                               ; preds = %2
  %13 = icmp slt i32 %11, 0
  br label %27

14:                                               ; preds = %2
  %15 = getelementptr inbounds nuw i8, ptr %0, i64 24
  %16 = load i32, ptr %15, align 8, !tbaa !204
  %17 = getelementptr inbounds nuw i8, ptr %1, i64 24
  %18 = load i32, ptr %17, align 8, !tbaa !204
  %.not13 = icmp eq i32 %16, %18
  br i1 %.not13, label %21, label %19

19:                                               ; preds = %14
  %20 = icmp ult i32 %16, %18
  br label %27

21:                                               ; preds = %14
  %22 = getelementptr inbounds nuw i8, ptr %0, i64 112
  %23 = load i32, ptr %22, align 8, !tbaa !226
  %24 = getelementptr inbounds nuw i8, ptr %1, i64 112
  %25 = load i32, ptr %24, align 8, !tbaa !226
  %26 = icmp slt i32 %23, %25
  br label %27

27:                                               ; preds = %21, %19, %12
  %.0 = phi i1 [ %13, %12 ], [ %20, %19 ], [ %26, %21 ]
  ret i1 %.0
}